target datalayout = "e-m:e-p270:32:32-p271:32:32-p272:64:64-i64:64-i128:128-f80:128-n8:16:32:64-S128"
target triple = "x86_64-pc-linux-gnu"

%struct.mbedtls_ecp_group = type { i32, %struct.mbedtls_mpi, %struct.mbedtls_mpi, %struct.mbedtls_mpi, %struct.mbedtls_ecp_point, %struct.mbedtls_mpi, i64, i64, i32, ptr, ptr, ptr, ptr, ptr, i64 }
%struct.mbedtls_ecp_point = type { %struct.mbedtls_mpi, %struct.mbedtls_mpi, %struct.mbedtls_mpi }
%struct.mbedtls_mpi = type { ptr, i16, i16 }

; Function Attrs: nounwind uwtable
define internal i32 @ecp_group_is_static_comb_table(ptr noundef %0) #0 {
  %2 = alloca ptr, align 8
  store ptr %0, ptr %2, align 8, !tbaa !25
  %3 = load ptr, ptr %2, align 8, !tbaa !25
  %4 = getelementptr inbounds nuw %struct.mbedtls_ecp_group, ptr %3, i32 0, i32 13
  %5 = load ptr, ptr %4, align 8, !tbaa !43
  %6 = icmp ne ptr %5, null
  br i1 %6, label %7, label %12

7:                                                ; preds = %1
  %8 = load ptr, ptr %2, align 8, !tbaa !25
  %9 = getelementptr inbounds nuw %struct.mbedtls_ecp_group, ptr %8, i32 0, i32 14
  %10 = load i64, ptr %9, align 8, !tbaa !44
  %11 = icmp eq i64 %10, 0
  br label %12

12:                                               ; preds = %7, %1
  %13 = phi i1 [ false, %1 ], [ %11, %7 ]
  %14 = zext i1 %13 to i32
  ret i32 %14
}

; Function Attrs: nounwind uwtable
define hidden void @mbedtls_ecp_point_free(ptr noundef %0) #0 {
  %2 = alloca ptr, align 8
  store ptr %0, ptr %2, align 8, !tbaa !34
  %3 = load ptr, ptr %2, align 8, !tbaa !34
  %4 = icmp eq ptr %3, null
  br i1 %4, label %5, label %6

5:                                                ; preds = %1
  br label %13

6:                                                ; preds = %1
  %7 = load ptr, ptr %2, align 8, !tbaa !34
  %8 = getelementptr inbounds nuw %struct.mbedtls_ecp_point, ptr %7, i32 0, i32 0
  call void @mbedtls_mpi_free(ptr noundef %8)
  %9 = load ptr, ptr %2, align 8, !tbaa !34
  %10 = getelementptr inbounds nuw %struct.mbedtls_ecp_point, ptr %9, i32 0, i32 1
  call void @mbedtls_mpi_free(ptr noundef %10)
  %11 = load ptr, ptr %2, align 8, !tbaa !34
  %12 = getelementptr inbounds nuw %struct.mbedtls_ecp_point, ptr %11, i32 0, i32 2
  call void @mbedtls_mpi_free(ptr noundef %12)
  br label %13

13:                                               ; preds = %6, %5
  ret void
}

; Function Attrs: nounwind uwtable
define hidden void @mbedtls_ecp_group_free(ptr noundef %0) #0 {
  %2 = alloca ptr, align 8
  %3 = alloca i64, align 8
  %4 = alloca i32, align 4
  store ptr %0, ptr %2, align 8, !tbaa !25
  call void @llvm.lifetime.start.p0(i64 8, ptr %3) #11
  %5 = load ptr, ptr %2, align 8, !tbaa !25
  %6 = icmp eq ptr %5, null
  br i1 %6, label %7, label %8

7:                                                ; preds = %1
  store i32 1, ptr %4, align 4
  br label %55

8:                                                ; preds = %1
  %9 = load ptr, ptr %2, align 8, !tbaa !25
  %10 = getelementptr inbounds nuw %struct.mbedtls_ecp_group, ptr %9, i32 0, i32 8
  %11 = load i32, ptr %10, align 8, !tbaa !38
  %12 = icmp ne i32 %11, 1
  br i1 %12, label %13, label %24

13:                                               ; preds = %8
  %14 = load ptr, ptr %2, align 8, !tbaa !25
  %15 = getelementptr inbounds nuw %struct.mbedtls_ecp_group, ptr %14, i32 0, i32 2
  call void @mbedtls_mpi_free(ptr noundef %15)
  %16 = load ptr, ptr %2, align 8, !tbaa !25
  %17 = getelementptr inbounds nuw %struct.mbedtls_ecp_group, ptr %16, i32 0, i32 3
  call void @mbedtls_mpi_free(ptr noundef %17)
  %18 = load ptr, ptr %2, align 8, !tbaa !25
  %19 = getelementptr inbounds nuw %struct.mbedtls_ecp_group, ptr %18, i32 0, i32 4
  call void @mbedtls_ecp_point_free(ptr noundef %19)
  %20 = load ptr, ptr %2, align 8, !tbaa !25
  %21 = getelementptr inbounds nuw %struct.mbedtls_ecp_group, ptr %20, i32 0, i32 5
  call void @mbedtls_mpi_free(ptr noundef %21)
  %22 = load ptr, ptr %2, align 8, !tbaa !25
  %23 = getelementptr inbounds nuw %struct.mbedtls_ecp_group, ptr %22, i32 0, i32 1
  call void @mbedtls_mpi_free(ptr noundef %23)
  br label %24

24:                                               ; preds = %13, %8
  %25 = load ptr, ptr %2, align 8, !tbaa !25
  %26 = call i32 @ecp_group_is_static_comb_table(ptr noundef %25)
  %27 = icmp ne i32 %26, 0
  br i1 %27, label %53, label %28

28:                                               ; preds = %24
  %29 = load ptr, ptr %2, align 8, !tbaa !25
  %30 = getelementptr inbounds nuw %struct.mbedtls_ecp_group, ptr %29, i32 0, i32 13
  %31 = load ptr, ptr %30, align 8, !tbaa !43
  %32 = icmp ne ptr %31, null
  br i1 %32, label %33, label %53

33:                                               ; preds = %28
  store i64 0, ptr %3, align 8, !tbaa !7
  br label %34

34:                                               ; preds = %46, %33
  %35 = load i64, ptr %3, align 8, !tbaa !7
  %36 = load ptr, ptr %2, align 8, !tbaa !25
  %37 = getelementptr inbounds nuw %struct.mbedtls_ecp_group, ptr %36, i32 0, i32 14
  %38 = load i64, ptr %37, align 8, !tbaa !44
  %39 = icmp ult i64 %35, %38
  br i1 %39, label %40, label %49

40:                                               ; preds = %34
  %41 = load ptr, ptr %2, align 8, !tbaa !25
  %42 = getelementptr inbounds nuw %struct.mbedtls_ecp_group, ptr %41, i32 0, i32 13
  %43 = load ptr, ptr %42, align 8, !tbaa !43
  %44 = load i64, ptr %3, align 8, !tbaa !7
  %45 = getelementptr inbounds nuw %struct.mbedtls_ecp_point, ptr %43, i64 %44
  call void @mbedtls_ecp_point_free(ptr noundef %45)
  br label %46

46:                                               ; preds = %40
  %47 = load i64, ptr %3, align 8, !tbaa !7
  %48 = add i64 %47, 1
  store i64 %48, ptr %3, align 8, !tbaa !7
  br label %34, !llvm.loop !47

49:                                               ; preds = %34
  %50 = load ptr, ptr %2, align 8, !tbaa !25
  %51 = getelementptr inbounds nuw %struct.mbedtls_ecp_group, ptr %50, i32 0, i32 13
  %52 = load ptr, ptr %51, align 8, !tbaa !43
  call void @free(ptr noundef %52) #11
  br label %53

53:                                               ; preds = %49, %28, %24
  %54 = load ptr, ptr %2, align 8, !tbaa !25
  call void @mbedtls_platform_zeroize(ptr noundef %54, i64 noundef 192)
  store i32 0, ptr %4, align 4
  br label %55

55:                                               ; preds = %53, %7
  call void @llvm.lifetime.end.p0(i64 8, ptr %3) #11
  %56 = load i32, ptr %4, align 4
  switch i32 %56, label %58 [
    i32 0, label %57
    i32 1, label %57
  ]

57:                                               ; preds = %55, %55
  ret void

58:                                               ; preds = %55
  unreachable
}