; Function Attrs: nounwind uwtable
define hidden void @mbedtls_ecp_group_free(ptr noundef %0) local_unnamed_addr #7 {
  %2 = icmp eq ptr %0, null
  br i1 %2, label %29, label %3

3:                                                ; preds = %1
  %4 = getelementptr inbounds nuw i8, ptr %0, i64 136
  %5 = load i32, ptr %4, align 8, !tbaa !28
  %.not = icmp eq i32 %5, 1
  br i1 %.not, label %14, label %6

6:                                                ; preds = %3
  %7 = getelementptr inbounds nuw i8, ptr %0, i64 24
  tail call void @mbedtls_mpi_free(ptr noundef nonnull %7) #21
  %8 = getelementptr inbounds nuw i8, ptr %0, i64 40
  tail call void @mbedtls_mpi_free(ptr noundef nonnull %8) #21
  %9 = getelementptr inbounds nuw i8, ptr %0, i64 56
  tail call void @mbedtls_mpi_free(ptr noundef nonnull %9) #21
  %10 = getelementptr inbounds nuw i8, ptr %0, i64 72
  tail call void @mbedtls_mpi_free(ptr noundef nonnull %10) #21
  %11 = getelementptr inbounds nuw i8, ptr %0, i64 88
  tail call void @mbedtls_mpi_free(ptr noundef nonnull %11) #21
  %12 = getelementptr inbounds nuw i8, ptr %0, i64 104
  tail call void @mbedtls_mpi_free(ptr noundef nonnull %12) #21
  %13 = getelementptr inbounds nuw i8, ptr %0, i64 8
  tail call void @mbedtls_mpi_free(ptr noundef nonnull %13) #21
  br label %14

14:                                               ; preds = %6, %3
  %15 = getelementptr inbounds nuw i8, ptr %0, i64 176
  %16 = load ptr, ptr %15, align 8, !tbaa !29
  %.not.i = icmp eq ptr %16, null
  br i1 %.not.i, label %.thread, label %ecp_group_is_static_comb_table.exit

ecp_group_is_static_comb_table.exit:              ; preds = %14
  %17 = getelementptr inbounds nuw i8, ptr %0, i64 184
  %18 = load i64, ptr %17, align 8, !tbaa !30
  %.not19 = icmp eq i64 %18, 0
  br i1 %.not19, label %.thread, label %.lr.ph.split

.lr.ph.split:                                     ; preds = %ecp_group_is_static_comb_table.exit, %mbedtls_ecp_point_free.exit
  %19 = phi i64 [ %26, %mbedtls_ecp_point_free.exit ], [ %18, %ecp_group_is_static_comb_table.exit ]
  %.020 = phi i64 [ %27, %mbedtls_ecp_point_free.exit ], [ 0, %ecp_group_is_static_comb_table.exit ]
  %20 = load ptr, ptr %15, align 8, !tbaa !29
  %21 = icmp eq ptr %20, null
  br i1 %21, label %mbedtls_ecp_point_free.exit, label %22

22:                                               ; preds = %.lr.ph.split
  %23 = getelementptr inbounds nuw %struct.mbedtls_ecp_point, ptr %20, i64 %.020
  tail call void @mbedtls_mpi_free(ptr noundef nonnull %23) #21
  %24 = getelementptr inbounds nuw i8, ptr %23, i64 16
  tail call void @mbedtls_mpi_free(ptr noundef nonnull %24) #21
  %25 = getelementptr inbounds nuw i8, ptr %23, i64 32
  tail call void @mbedtls_mpi_free(ptr noundef nonnull %25) #21
  %.pre = load i64, ptr %17, align 8, !tbaa !30
  br label %mbedtls_ecp_point_free.exit

mbedtls_ecp_point_free.exit:                      ; preds = %.lr.ph.split, %22
  %26 = phi i64 [ %19, %.lr.ph.split ], [ %.pre, %22 ]
  %27 = add nuw i64 %.020, 1
  %28 = icmp ult i64 %27, %26
  br i1 %28, label %.lr.ph.split, label %._crit_edge, !llvm.loop !31

._crit_edge:                                      ; preds = %mbedtls_ecp_point_free.exit
  %.pre23 = load ptr, ptr %15, align 8, !tbaa !29
  tail call void @free(ptr noundef %.pre23) #21
  br label %.thread

.thread:                                          ; preds = %14, %._crit_edge, %ecp_group_is_static_comb_table.exit
  tail call void @mbedtls_platform_zeroize(ptr noundef nonnull %0, i64 noundef 192) #21
  br label %29

29:                                               ; preds = %1, %.thread
  ret void
}